; Function Attrs: nounwind uwtable
define internal void @encode_test_cleanup(ptr noundef readonly captures(none) %0) #1 {
  %2 = getelementptr inbounds nuw i8, ptr %0, i64 35272
  %3 = load ptr, ptr %2, align 8, !tbaa !20
  %4 = load ptr, ptr %3, align 8, !tbaa !191
  tail call void @CRYPTO_free(ptr noundef %4, ptr noundef nonnull @.str.29, i32 noundef 3268) #10
  %5 = getelementptr inbounds nuw i8, ptr %3, i64 16
  %6 = load ptr, ptr %5, align 8, !tbaa !192
  tail call void @CRYPTO_free(ptr noundef %6, ptr noundef nonnull @.str.29, i32 noundef 3269) #10
  tail call void @llvm.memset.p0.i64(ptr noundef nonnull align 8 dereferenceable(40) %3, i8 0, i64 40, i1 false)
  ret void
}